target datalayout = "e-m:e-p270:32:32-p271:32:32-p272:64:64-i64:64-i128:128-f80:128-n8:16:32:64-S128"
target triple = "x86_64-pc-linux-gnu"

%"class.cvc5::internal::NodeTemplate.5" = type { ptr }
%"class.cvc5::internal::NodeTemplate" = type { ptr }
%"class.cvc5::internal::NodeBuilder" = type <{ %"class.cvc5::internal::expr::NodeValue", [10 x ptr], ptr, ptr, i32, [4 x i8] }>
%"class.cvc5::internal::expr::NodeValue" = type { i64, i64, ptr, [0 x ptr] }

; Function Attrs: mustprogress nounwind uwtable
define linkonce_odr hidden noundef ptr @_ZNK4cvc58internal4expr9NodeValue14getNodeManagerEv(ptr noundef nonnull align 8 dereferenceable(24) %0) #4 comdat align 2 {
  %2 = alloca ptr, align 8
  store ptr %0, ptr %2, align 8, !tbaa !85
  %3 = load ptr, ptr %2, align 8
  %4 = getelementptr inbounds nuw %"class.cvc5::internal::expr::NodeValue", ptr %3, i32 0, i32 2
  %5 = load ptr, ptr %4, align 8, !tbaa !86
  ret ptr %5
}

; Function Attrs: inlinehint mustprogress nounwind uwtable
define linkonce_odr hidden void @_ZNK4cvc58internal12NodeTemplateILb0EE21assertTNodeNotExpiredEv(ptr noundef nonnull align 8 dereferenceable(8) %0) #5 comdat align 2 {
  %2 = alloca ptr, align 8
  store ptr %0, ptr %2, align 8, !tbaa !33
  ret void
}

; Function Attrs: mustprogress uwtable
define linkonce_odr hidden noundef ptr @_ZNK4cvc58internal12NodeTemplateILb0EE14getNodeManagerEv(ptr noundef nonnull align 8 dereferenceable(8) %0) #6 comdat align 2 {
  %2 = alloca ptr, align 8
  store ptr %0, ptr %2, align 8, !tbaa !33
  %3 = load ptr, ptr %2, align 8
  call void @_ZNK4cvc58internal12NodeTemplateILb0EE21assertTNodeNotExpiredEv(ptr noundef nonnull align 8 dereferenceable(8) %3)
  %4 = getelementptr inbounds nuw %"class.cvc5::internal::NodeTemplate.5", ptr %3, i32 0, i32 0
  %5 = load ptr, ptr %4, align 8, !tbaa !37
  %6 = call noundef ptr @_ZNK4cvc58internal4expr9NodeValue14getNodeManagerEv(ptr noundef nonnull align 8 dereferenceable(24) %5)
  ret ptr %6
}

; Function Attrs: mustprogress nounwind uwtable
define linkonce_odr hidden void @_ZN4cvc58internal12NodeTemplateILb0EED2Ev(ptr noundef nonnull align 8 dereferenceable(8) %0) unnamed_addr #4 comdat align 2 {
  %2 = alloca ptr, align 8
  store ptr %0, ptr %2, align 8, !tbaa !33
  ret void
}

; Function Attrs: inlinehint mustprogress uwtable
define linkonce_odr hidden void @_ZN4cvc58internal11NodeManager6mkNodeENS0_4kind6Kind_tENS0_12NodeTemplateILb0EEES5_S5_(ptr dead_on_unwind noalias writable sret(%"class.cvc5::internal::NodeTemplate") align 8 %0, i32 noundef %1, ptr noundef %2, ptr noundef %3, ptr noundef %4) #7 comdat align 2 personality ptr @__gxx_personality_v0 {
  %6 = alloca ptr, align 8
  %7 = alloca i32, align 4
  %8 = alloca ptr, align 8
  %9 = alloca ptr, align 8
  %10 = alloca ptr, align 8
  %11 = alloca %"class.cvc5::internal::NodeBuilder", align 8
  %12 = alloca %"class.cvc5::internal::NodeTemplate.5", align 8
  %13 = alloca ptr, align 8
  %14 = alloca i32, align 4
  %15 = alloca %"class.cvc5::internal::NodeTemplate.5", align 8
  %16 = alloca %"class.cvc5::internal::NodeTemplate.5", align 8
  store ptr %0, ptr %6, align 8
  store i32 %1, ptr %7, align 4, !tbaa !35
  store ptr %2, ptr %8, align 8, !tbaa !33
  store ptr %3, ptr %9, align 8, !tbaa !33
  store ptr %4, ptr %10, align 8, !tbaa !33
  call void @llvm.lifetime.start.p0(i64 128, ptr %11) #3
  %17 = call noundef ptr @_ZNK4cvc58internal12NodeTemplateILb0EE14getNodeManagerEv(ptr noundef nonnull align 8 dereferenceable(8) %2)
  %18 = load i32, ptr %7, align 4, !tbaa !35
  call void @_ZN4cvc58internal11NodeBuilderC1EPNS0_11NodeManagerENS0_4kind6Kind_tE(ptr noundef nonnull align 8 dereferenceable(124) %11, ptr noundef %17, i32 noundef %18)
  invoke void @_ZN4cvc58internal12NodeTemplateILb0EEC2ERKS2_(ptr noundef nonnull align 8 dereferenceable(8) %12, ptr noundef nonnull align 8 dereferenceable(8) %2)
          to label %19 unwind label %29

19:                                               ; preds = %5
  %20 = invoke noundef nonnull align 8 dereferenceable(124) ptr @_ZN4cvc58internal11NodeBuilderlsENS0_12NodeTemplateILb0EEE(ptr noundef nonnull align 8 dereferenceable(124) %11, ptr noundef %12)
          to label %21 unwind label %33

21:                                               ; preds = %19
  invoke void @_ZN4cvc58internal12NodeTemplateILb0EEC2ERKS2_(ptr noundef nonnull align 8 dereferenceable(8) %15, ptr noundef nonnull align 8 dereferenceable(8) %3)
          to label %22 unwind label %33

22:                                               ; preds = %21
  %23 = invoke noundef nonnull align 8 dereferenceable(124) ptr @_ZN4cvc58internal11NodeBuilderlsENS0_12NodeTemplateILb0EEE(ptr noundef nonnull align 8 dereferenceable(124) %20, ptr noundef %15)
          to label %24 unwind label %37

24:                                               ; preds = %22
  invoke void @_ZN4cvc58internal12NodeTemplateILb0EEC2ERKS2_(ptr noundef nonnull align 8 dereferenceable(8) %16, ptr noundef nonnull align 8 dereferenceable(8) %4)
          to label %25 unwind label %37

25:                                               ; preds = %24
  %26 = invoke noundef nonnull align 8 dereferenceable(124) ptr @_ZN4cvc58internal11NodeBuilderlsENS0_12NodeTemplateILb0EEE(ptr noundef nonnull align 8 dereferenceable(124) %23, ptr noundef %16)
          to label %27 unwind label %41

27:                                               ; preds = %25
  call void @_ZN4cvc58internal12NodeTemplateILb0EED2Ev(ptr noundef nonnull align 8 dereferenceable(8) %16) #3
  call void @_ZN4cvc58internal12NodeTemplateILb0EED2Ev(ptr noundef nonnull align 8 dereferenceable(8) %15) #3
  call void @_ZN4cvc58internal12NodeTemplateILb0EED2Ev(ptr noundef nonnull align 8 dereferenceable(8) %12) #3
  invoke void @_ZN4cvc58internal11NodeBuilder13constructNodeEv(ptr dead_on_unwind writable sret(%"class.cvc5::internal::NodeTemplate") align 8 %0, ptr noundef nonnull align 8 dereferenceable(124) %11)
          to label %28 unwind label %29

28:                                               ; preds = %27
  call void @_ZN4cvc58internal11NodeBuilderD1Ev(ptr noundef nonnull align 8 dereferenceable(124) %11) #3
  call void @llvm.lifetime.end.p0(i64 128, ptr %11) #3
  ret void

29:                                               ; preds = %27, %5
  %30 = landingpad { ptr, i32 }
          cleanup
  %31 = extractvalue { ptr, i32 } %30, 0
  store ptr %31, ptr %13, align 8
  %32 = extractvalue { ptr, i32 } %30, 1
  store i32 %32, ptr %14, align 4
  br label %47

33:                                               ; preds = %21, %19
  %34 = landingpad { ptr, i32 }
          cleanup
  %35 = extractvalue { ptr, i32 } %34, 0
  store ptr %35, ptr %13, align 8
  %36 = extractvalue { ptr, i32 } %34, 1
  store i32 %36, ptr %14, align 4
  br label %46

37:                                               ; preds = %24, %22
  %38 = landingpad { ptr, i32 }
          cleanup
  %39 = extractvalue { ptr, i32 } %38, 0
  store ptr %39, ptr %13, align 8
  %40 = extractvalue { ptr, i32 } %38, 1
  store i32 %40, ptr %14, align 4
  br label %45

41:                                               ; preds = %25
  %42 = landingpad { ptr, i32 }
          cleanup
  %43 = extractvalue { ptr, i32 } %42, 0
  store ptr %43, ptr %13, align 8
  %44 = extractvalue { ptr, i32 } %42, 1
  store i32 %44, ptr %14, align 4
  call void @_ZN4cvc58internal12NodeTemplateILb0EED2Ev(ptr noundef nonnull align 8 dereferenceable(8) %16) #3
  br label %45

45:                                               ; preds = %41, %37
  call void @_ZN4cvc58internal12NodeTemplateILb0EED2Ev(ptr noundef nonnull align 8 dereferenceable(8) %15) #3
  br label %46

46:                                               ; preds = %45, %33
  call void @_ZN4cvc58internal12NodeTemplateILb0EED2Ev(ptr noundef nonnull align 8 dereferenceable(8) %12) #3
  br label %47

47:                                               ; preds = %46, %29
  call void @_ZN4cvc58internal11NodeBuilderD1Ev(ptr noundef nonnull align 8 dereferenceable(124) %11) #3
  call void @llvm.lifetime.end.p0(i64 128, ptr %11) #3
  br label %48

48:                                               ; preds = %47
  %49 = load ptr, ptr %13, align 8
  %50 = load i32, ptr %14, align 4
  %51 = insertvalue { ptr, i32 } poison, ptr %49, 0
  %52 = insertvalue { ptr, i32 } %51, i32 %50, 1
  resume { ptr, i32 } %52
}

; Function Attrs: mustprogress nounwind uwtable
define linkonce_odr hidden void @_ZN4cvc58internal12NodeTemplateILb0EEC2ERKS2_(ptr noundef nonnull align 8 dereferenceable(8) %0, ptr noundef nonnull align 8 dereferenceable(8) %1) unnamed_addr #4 comdat align 2 {
  %3 = alloca ptr, align 8
  %4 = alloca ptr, align 8
  store ptr %0, ptr %3, align 8, !tbaa !33
  store ptr %1, ptr %4, align 8, !tbaa !33
  %5 = load ptr, ptr %3, align 8
  %6 = load ptr, ptr %4, align 8, !tbaa !33
  %7 = getelementptr inbounds nuw %"class.cvc5::internal::NodeTemplate.5", ptr %6, i32 0, i32 0
  %8 = load ptr, ptr %7, align 8, !tbaa !37
  %9 = getelementptr inbounds nuw %"class.cvc5::internal::NodeTemplate.5", ptr %5, i32 0, i32 0
  store ptr %8, ptr %9, align 8, !tbaa !37
  ret void
}

; Function Attrs: mustprogress uwtable
define hidden void @_ZN4cvc58internal15BoundVarManager13getCacheValueENS0_12NodeTemplateILb0EEES3_S3_(ptr dead_on_unwind noalias writable sret(%"class.cvc5::internal::NodeTemplate") align 8 %0, ptr noundef %1, ptr noundef %2, ptr noundef %3) #6 align 2 personality ptr @__gxx_personality_v0 {
  %5 = alloca ptr, align 8
  %6 = alloca ptr, align 8
  %7 = alloca ptr, align 8
  %8 = alloca ptr, align 8
  %9 = alloca %"class.cvc5::internal::NodeTemplate.5", align 8
  %10 = alloca %"class.cvc5::internal::NodeTemplate.5", align 8
  %11 = alloca ptr, align 8
  %12 = alloca i32, align 4
  %13 = alloca %"class.cvc5::internal::NodeTemplate.5", align 8
  store ptr %0, ptr %5, align 8
  store ptr %1, ptr %6, align 8, !tbaa !33
  store ptr %2, ptr %7, align 8, !tbaa !33
  store ptr %3, ptr %8, align 8, !tbaa !33
  call void @_ZN4cvc58internal12NodeTemplateILb0EEC2ERKS2_(ptr noundef nonnull align 8 dereferenceable(8) %9, ptr noundef nonnull align 8 dereferenceable(8) %1)
  invoke void @_ZN4cvc58internal12NodeTemplateILb0EEC2ERKS2_(ptr noundef nonnull align 8 dereferenceable(8) %10, ptr noundef nonnull align 8 dereferenceable(8) %2)
          to label %14 unwind label %17

14:                                               ; preds = %4
  invoke void @_ZN4cvc58internal12NodeTemplateILb0EEC2ERKS2_(ptr noundef nonnull align 8 dereferenceable(8) %13, ptr noundef nonnull align 8 dereferenceable(8) %3)
          to label %15 unwind label %21

15:                                               ; preds = %14
  invoke void @_ZN4cvc58internal11NodeManager6mkNodeENS0_4kind6Kind_tENS0_12NodeTemplateILb0EEES5_S5_(ptr dead_on_unwind writable sret(%"class.cvc5::internal::NodeTemplate") align 8 %0, i32 noundef 11, ptr noundef %9, ptr noundef %10, ptr noundef %13)
          to label %16 unwind label %25

16:                                               ; preds = %15
  call void @_ZN4cvc58internal12NodeTemplateILb0EED2Ev(ptr noundef nonnull align 8 dereferenceable(8) %13) #3
  call void @_ZN4cvc58internal12NodeTemplateILb0EED2Ev(ptr noundef nonnull align 8 dereferenceable(8) %10) #3
  call void @_ZN4cvc58internal12NodeTemplateILb0EED2Ev(ptr noundef nonnull align 8 dereferenceable(8) %9) #3
  ret void

17:                                               ; preds = %4
  %18 = landingpad { ptr, i32 }
          cleanup
  %19 = extractvalue { ptr, i32 } %18, 0
  store ptr %19, ptr %11, align 8
  %20 = extractvalue { ptr, i32 } %18, 1
  store i32 %20, ptr %12, align 4
  br label %30

21:                                               ; preds = %14
  %22 = landingpad { ptr, i32 }
          cleanup
  %23 = extractvalue { ptr, i32 } %22, 0
  store ptr %23, ptr %11, align 8
  %24 = extractvalue { ptr, i32 } %22, 1
  store i32 %24, ptr %12, align 4
  br label %29

25:                                               ; preds = %15
  %26 = landingpad { ptr, i32 }
          cleanup
  %27 = extractvalue { ptr, i32 } %26, 0
  store ptr %27, ptr %11, align 8
  %28 = extractvalue { ptr, i32 } %26, 1
  store i32 %28, ptr %12, align 4
  call void @_ZN4cvc58internal12NodeTemplateILb0EED2Ev(ptr noundef nonnull align 8 dereferenceable(8) %13) #3
  br label %29

29:                                               ; preds = %25, %21
  call void @_ZN4cvc58internal12NodeTemplateILb0EED2Ev(ptr noundef nonnull align 8 dereferenceable(8) %10) #3
  br label %30

30:                                               ; preds = %29, %17
  call void @_ZN4cvc58internal12NodeTemplateILb0EED2Ev(ptr noundef nonnull align 8 dereferenceable(8) %9) #3
  br label %31

31:                                               ; preds = %30
  %32 = load ptr, ptr %11, align 8
  %33 = load i32, ptr %12, align 4
  %34 = insertvalue { ptr, i32 } poison, ptr %32, 0
  %35 = insertvalue { ptr, i32 } %34, i32 %33, 1
  resume { ptr, i32 } %35
}