; Function Attrs: mustprogress uwtable
define hidden void @_ZN4cvc58internal15BoundVarManager13getCacheValueENS0_12NodeTemplateILb0EEES3_S3_(ptr dead_on_unwind noalias writable sret(%"class.cvc5::internal::NodeTemplate") align 8 %0, ptr noundef readonly captures(none) %1, ptr noundef readonly captures(none) %2, ptr noundef readonly captures(none) %3) local_unnamed_addr #5 align 2 personality ptr @__gxx_personality_v0 {
.noexc:
  %4 = alloca %"class.cvc5::internal::NodeBuilder", align 8
  %5 = alloca %"class.cvc5::internal::NodeTemplate.5", align 8
  %6 = alloca %"class.cvc5::internal::NodeTemplate.5", align 8
  %7 = alloca %"class.cvc5::internal::NodeTemplate.5", align 8
  %8 = load ptr, ptr %1, align 8, !tbaa !96
  %9 = load ptr, ptr %2, align 8, !tbaa !96
  %10 = load ptr, ptr %3, align 8, !tbaa !96
  call void @llvm.lifetime.start.p0(i64 8, ptr nonnull %5)
  call void @llvm.lifetime.start.p0(i64 8, ptr nonnull %6)
  call void @llvm.lifetime.start.p0(i64 8, ptr nonnull %7)
  call void @llvm.lifetime.start.p0(i64 128, ptr nonnull %4) #20, !noalias !101
  %11 = getelementptr inbounds nuw i8, ptr %8, i64 16
  %12 = load ptr, ptr %11, align 8, !tbaa !23, !noalias !101
  call void @_ZN4cvc58internal11NodeBuilderC1EPNS0_11NodeManagerENS0_4kind6Kind_tE(ptr noundef nonnull align 8 dereferenceable(124) %4, ptr noundef %12, i32 noundef 11)
  store ptr %8, ptr %5, align 8, !tbaa !96, !noalias !101
  %13 = invoke noundef nonnull align 8 dereferenceable(124) ptr @_ZN4cvc58internal11NodeBuilderlsENS0_12NodeTemplateILb0EEE(ptr noundef nonnull align 8 dereferenceable(124) %4, ptr noundef nonnull %5)
          to label %14 unwind label %21, !noalias !101

14:                                               ; preds = %.noexc
  store ptr %9, ptr %6, align 8, !tbaa !96, !noalias !101
  %15 = invoke noundef nonnull align 8 dereferenceable(124) ptr @_ZN4cvc58internal11NodeBuilderlsENS0_12NodeTemplateILb0EEE(ptr noundef nonnull align 8 dereferenceable(124) %13, ptr noundef nonnull %6)
          to label %16 unwind label %23, !noalias !101

16:                                               ; preds = %14
  store ptr %10, ptr %7, align 8, !tbaa !96, !noalias !101
  %17 = invoke noundef nonnull align 8 dereferenceable(124) ptr @_ZN4cvc58internal11NodeBuilderlsENS0_12NodeTemplateILb0EEE(ptr noundef nonnull align 8 dereferenceable(124) %15, ptr noundef nonnull %7)
          to label %18 unwind label %25, !noalias !101

18:                                               ; preds = %16
  invoke void @_ZN4cvc58internal11NodeBuilder13constructNodeEv(ptr dead_on_unwind writable sret(%"class.cvc5::internal::NodeTemplate") align 8 %0, ptr noundef nonnull align 8 dereferenceable(124) %4)
          to label %27 unwind label %19

19:                                               ; preds = %18
  %20 = landingpad { ptr, i32 }
          cleanup
  br label %.body

21:                                               ; preds = %.noexc
  %22 = landingpad { ptr, i32 }
          cleanup
  br label %.body

23:                                               ; preds = %14
  %24 = landingpad { ptr, i32 }
          cleanup
  br label %.body

25:                                               ; preds = %16
  %26 = landingpad { ptr, i32 }
          cleanup
  br label %.body

.body:                                            ; preds = %25, %23, %21, %19
  %.pn7.i = phi { ptr, i32 } [ %20, %19 ], [ %22, %21 ], [ %26, %25 ], [ %24, %23 ]
  call void @_ZN4cvc58internal11NodeBuilderD1Ev(ptr noundef nonnull align 8 dereferenceable(124) %4) #20
  call void @llvm.lifetime.end.p0(i64 128, ptr nonnull %4) #20, !noalias !101
  resume { ptr, i32 } %.pn7.i

27:                                               ; preds = %18
  call void @_ZN4cvc58internal11NodeBuilderD1Ev(ptr noundef nonnull align 8 dereferenceable(124) %4) #20
  call void @llvm.lifetime.end.p0(i64 128, ptr nonnull %4) #20, !noalias !101
  call void @llvm.lifetime.end.p0(i64 8, ptr nonnull %5)
  call void @llvm.lifetime.end.p0(i64 8, ptr nonnull %6)
  call void @llvm.lifetime.end.p0(i64 8, ptr nonnull %7)
  ret void
}